Certificate:
    Data:
        Version: 3 (0x2)
        Serial Number: 2 (0x2)
    Signature Algorithm: sha256WithRSAEncryption
        Issuer: C=CN, ST=GuangDong, L=ShenZhen, O=LINK4ALL, OU=LINK4ALL, CN=LINK4ALL/name=EasyRSA/emailAddress=admin@link-4all.com
        Validity
            Not Before: Jan 11 01:18:11 2018 GMT
            Not After : Jan  9 01:18:11 2028 GMT
        Subject: C=CN, ST=GuangDong, L=ShenZhen, O=LINK4ALL, OU=LINK4ALL, CN=laptop/name=EasyRSA/emailAddress=admin@link-4all.com
        Subject Public Key Info:
            Public Key Algorithm: rsaEncryption
                Public-Key: (2048 bit)
                Modulus:
                    00:c8:f2:bb:fd:97:47:e7:d3:24:5e:16:e8:e3:d8:
                    4d:bf:c9:95:fa:96:20:bc:68:62:74:e6:17:8d:39:
                    75:cc:cd:c6:d8:33:6d:02:27:c0:c3:03:70:f9:cb:
                    99:20:a9:88:f8:bc:4f:15:0b:70:23:5f:32:96:42:
                    a4:ef:3c:2b:db:8f:d4:29:a4:60:52:c1:5d:95:97:
                    e0:74:e9:0c:c8:c6:63:e4:74:83:13:32:f8:91:45:
                    06:fa:1d:35:e8:a2:e6:f1:2e:66:d7:6e:4f:8d:74:
                    4e:17:9c:d8:4b:56:6c:85:57:fd:c6:c1:05:f9:c1:
                    6f:a5:05:35:5c:cb:a1:35:94:27:26:3b:68:95:95:
                    cb:20:51:23:36:4f:67:12:ec:59:f5:0f:ea:6c:a8:
                    ec:59:16:e2:ea:2b:2a:3a:09:73:2b:81:69:fa:46:
                    59:44:45:b2:f4:41:79:4b:a2:4f:9b:4d:85:44:d7:
                    ba:c8:e0:45:a4:ee:df:ca:e8:8e:c7:8b:eb:d9:47:
                    3f:5b:f4:fd:54:9d:c9:77:05:0f:81:8b:d0:59:78:
                    59:4c:9d:f4:df:e0:76:a0:d5:fa:e0:92:e3:cf:64:
                    87:6b:25:68:de:62:ca:66:63:65:bb:e8:1c:09:6e:
                    c6:4d:2b:40:be:e4:09:21:79:32:50:3f:da:c9:fe:
                    57:ab
                Exponent: 65537 (0x10001)
        X509v3 extensions:
            X509v3 Basic Constraints: 
                CA:FALSE
            Netscape Comment: 
                Easy-RSA Generated Certificate
            X509v3 Subject Key Identifier: 
                BF:83:1D:00:F9:F4:56:CC:70:C4:BF:E2:1E:18:14:E8:36:8C:A7:FD
            X509v3 Authority Key Identifier: 
                keyid:21:40:2D:11:FE:9F:8F:68:FB:06:1E:57:0C:6A:28:B0:C6:B6:CD:2A
                DirName:/C=CN/ST=GuangDong/L=ShenZhen/O=LINK4ALL/OU=LINK4ALL/CN=LINK4ALL/name=EasyRSA/emailAddress=admin@link-4all.com
                serial:A3:0A:30:6F:BD:55:AB:B1

            X509v3 Extended Key Usage: 
                TLS Web Client Authentication
            X509v3 Key Usage: 
                Digital Signature
            X509v3 Subject Alternative Name: 
                DNS:laptop
    Signature Algorithm: sha256WithRSAEncryption
         8c:ce:39:88:f2:73:fc:f9:b6:bb:b3:5e:20:73:45:24:f8:26:
         d5:49:a2:5e:76:b0:6b:9a:c5:32:61:f1:46:fa:88:e6:c5:e6:
         33:44:6d:b0:fc:39:70:28:03:30:3b:ce:13:83:5c:53:62:ac:
         03:dd:ae:b1:0c:5d:b1:09:b9:1d:6c:63:07:55:af:64:6e:96:
         15:4c:b4:e6:66:20:4e:92:b5:56:8f:af:9a:ce:98:bd:50:a6:
         d5:d1:38:a3:96:5b:06:de:1f:eb:cf:c2:78:41:7a:95:e9:ab:
         87:59:87:5a:75:ee:75:35:13:c3:8d:14:31:5c:e4:6d:ba:11:
         4a:5d:15:02:b5:8c:2f:7d:82:00:27:ef:13:a6:c3:1c:2c:f3:
         d1:00:f4:0e:10:cb:69:70:e3:05:6d:4b:e4:9a:95:ca:b3:ca:
         02:44:24:2e:82:9f:d1:79:e5:5a:19:43:0b:7d:66:c5:e6:5a:
         a2:8d:e2:c8:24:32:b7:92:2f:79:8d:8c:44:e7:62:11:9e:c9:
         b7:28:4d:8b:ee:16:6f:73:11:07:dd:c6:ca:22:a6:c4:66:28:
         8f:1f:1f:e1:07:01:83:9e:a3:3e:d6:8a:93:f8:11:ad:cc:61:
         4d:65:ad:9a:e0:bd:6f:a1:c9:ca:2f:9c:9a:b4:e9:21:1d:e9:
         5a:92:9a:11
-----BEGIN CERTIFICATE-----
MIIFMDCCBBigAwIBAgIBAjANBgkqhkiG9w0BAQsFADCBozELMAkGA1UEBhMCQ04x
EjAQBgNVBAgTCUd1YW5nRG9uZzERMA8GA1UEBxMIU2hlblpoZW4xETAPBgNVBAoT
CExJTks0QUxMMREwDwYDVQQLEwhMSU5LNEFMTDERMA8GA1UEAxMITElOSzRBTEwx
EDAOBgNVBCkTB0Vhc3lSU0ExIjAgBgkqhkiG9w0BCQEWE2FkbWluQGxpbmstNGFs
bC5jb20wHhcNMTgwMTExMDExODExWhcNMjgwMTA5MDExODExWjCBoTELMAkGA1UE
BhMCQ04xEjAQBgNVBAgTCUd1YW5nRG9uZzERMA8GA1UEBxMIU2hlblpoZW4xETAP
BgNVBAoTCExJTks0QUxMMREwDwYDVQQLEwhMSU5LNEFMTDEPMA0GA1UEAxMGbGFw
dG9wMRAwDgYDVQQpEwdFYXN5UlNBMSIwIAYJKoZIhvcNAQkBFhNhZG1pbkBsaW5r
LTRhbGwuY29tMIIBIjANBgkqhkiG9w0BAQEFAAOCAQ8AMIIBCgKCAQEAyPK7/ZdH
59MkXhbo49hNv8mV+pYgvGhidOYXjTl1zM3G2DNtAifAwwNw+cuZIKmI+LxPFQtw
I18ylkKk7zwr24/UKaRgUsFdlZfgdOkMyMZj5HSDEzL4kUUG+h016KLm8S5m125P
jXROF5zYS1ZshVf9xsEF+cFvpQU1XMuhNZQnJjtolZXLIFEjNk9nEuxZ9Q/qbKjs
WRbi6isqOglzK4Fp+kZZREWy9EF5S6JPm02FRNe6yOBFpO7fyuiOx4vr2Uc/W/T9
VJ3JdwUPgYvQWXhZTJ303+B2oNX64JLjz2SHayVo3mLKZmNlu+gcCW7GTStAvuQJ
IXkyUD/ayf5XqwIDAQABo4IBbTCCAWkwCQYDVR0TBAIwADAtBglghkgBhvhCAQ0E
IBYeRWFzeS1SU0EgR2VuZXJhdGVkIENlcnRpZmljYXRlMB0GA1UdDgQWBBS/gx0A
+fRWzHDEv+IeGBToNoyn/TCB2AYDVR0jBIHQMIHNgBQhQC0R/p+PaPsGHlcMaiiw
xrbNKqGBqaSBpjCBozELMAkGA1UEBhMCQ04xEjAQBgNVBAgTCUd1YW5nRG9uZzER
MA8GA1UEBxMIU2hlblpoZW4xETAPBgNVBAoTCExJTks0QUxMMREwDwYDVQQLEwhM
SU5LNEFMTDERMA8GA1UEAxMITElOSzRBTEwxEDAOBgNVBCkTB0Vhc3lSU0ExIjAg
BgkqhkiG9w0BCQEWE2FkbWluQGxpbmstNGFsbC5jb22CCQCjCjBvvVWrsTATBgNV
HSUEDDAKBggrBgEFBQcDAjALBgNVHQ8EBAMCB4AwEQYDVR0RBAowCIIGbGFwdG9w
MA0GCSqGSIb3DQEBCwUAA4IBAQCMzjmI8nP8+ba7s14gc0Uk+CbVSaJedrBrmsUy
YfFG+ojmxeYzRG2w/DlwKAMwO84Tg1xTYqwD3a6xDF2xCbkdbGMHVa9kbpYVTLTm
ZiBOkrVWj6+azpi9UKbV0TijllsG3h/rz8J4QXqV6auHWYdade51NRPDjRQxXORt
uhFKXRUCtYwvfYIAJ+8TpsMcLPPRAPQOEMtpcOMFbUvkmpXKs8oCRCQugp/ReeVa
GUMLfWbF5lqijeLIJDK3ki95jYxE52IRnsm3KE2L7hZvcxEH3cbKIqbEZiiPHx/h
BwGDnqM+1oqT+BGtzGFNZa2a4L1vocnKL5yatOkhHelakpoR
-----END CERTIFICATE-----
